; Function Attrs: nounwind uwtable
define hidden void @zif_rawurlencode(ptr noundef %0, ptr nocapture noundef writeonly %1) local_unnamed_addr #0 {
  %3 = alloca ptr, align 8
  %4 = getelementptr inbounds i8, ptr %0, i64 44
  %5 = load i32, ptr %4, align 4
  %cond = icmp eq i32 %5, 1
  br i1 %cond, label %7, label %6

6:                                                ; preds = %2
  tail call void @zend_wrong_parameters_count_error(i32 noundef 1, i32 noundef 1) #16
  br label %.thread88

7:                                                ; preds = %2
  %8 = getelementptr inbounds i8, ptr %0, i64 80
  %9 = getelementptr inbounds i8, ptr %0, i64 88
  %10 = load i8, ptr %9, align 8
  %11 = icmp eq i8 %10, 6
  br i1 %11, label %.thread77, label %13

.thread77:                                        ; preds = %7
  %12 = load ptr, ptr %8, align 8
  store ptr %12, ptr %3, align 8
  br label %.thread81

13:                                               ; preds = %7
  %14 = call zeroext i1 @zend_parse_arg_str_slow(ptr noundef nonnull %8, ptr noundef nonnull %3, i32 noundef 1) #16
  %.fr = freeze i1 %14
  br i1 %.fr, label %..thread81_crit_edge, label %.thread88

..thread81_crit_edge:                             ; preds = %13
  %.pre = load ptr, ptr %3, align 8
  br label %.thread81

.thread88:                                        ; preds = %13, %6
  %.05697 = phi i32 [ 0, %6 ], [ 1, %13 ]
  %.05796 = phi i32 [ 1, %6 ], [ 9, %13 ]
  %.05895 = phi ptr [ null, %6 ], [ %8, %13 ]
  %.05994 = phi i32 [ 0, %6 ], [ 4, %13 ]
  call void @zend_wrong_parameter_error(i32 noundef %.05796, i32 noundef %.05697, ptr noundef null, i32 noundef %.05994, ptr noundef %.05895) #16
  br label %25

.thread81:                                        ; preds = %..thread81_crit_edge, %.thread77
  %15 = phi ptr [ %.pre, %..thread81_crit_edge ], [ %12, %.thread77 ]
  %16 = getelementptr inbounds i8, ptr %15, i64 24
  %17 = getelementptr inbounds i8, ptr %15, i64 16
  %18 = load i64, ptr %17, align 8
  %19 = call ptr @php_raw_url_encode(ptr noundef nonnull %16, i64 noundef %18)
  store ptr %19, ptr %1, align 8
  %20 = getelementptr inbounds i8, ptr %19, i64 4
  %21 = load i32, ptr %20, align 4
  %22 = and i32 %21, 64
  %.not63 = icmp eq i32 %22, 0
  %23 = select i1 %.not63, i32 262, i32 6
  %24 = getelementptr inbounds i8, ptr %1, i64 8
  store i32 %23, ptr %24, align 8
  br label %25

25:                                               ; preds = %.thread81, %.thread88
  ret void
}